target datalayout = "e-m:e-p270:32:32-p271:32:32-p272:64:64-i64:64-i128:128-f80:128-n8:16:32:64-S128"
target triple = "x86_64-unknown-linux-gnu"

%"class.icu_75::UMutex" = type { [40 x i8], %"struct.std::atomic", ptr }
%"struct.std::atomic" = type { %"struct.std::__atomic_base" }
%"struct.std::__atomic_base" = type { ptr }
%"class.icu_75::Mutex" = type { ptr }
%"class.icu_75::Locale" = type <{ %"class.icu_75::UObject", [12 x i8], [6 x i8], [4 x i8], [2 x i8], i32, [4 x i8], ptr, [157 x i8], [3 x i8], ptr, i8, [7 x i8] }>
%"class.icu_75::UObject" = type { ptr }

@_ZN6icu_75L19gDefaultLocaleMutexE = internal global %"class.icu_75::UMutex" zeroinitializer, align 8
@_ZN6icu_75L14gDefaultLocaleE = internal global ptr null, align 8
@.str = private unnamed_addr constant [1 x i8] zeroinitializer, align 1
@_ZN6icu_756LocaleD1Ev = unnamed_addr alias void (ptr), ptr @_ZN6icu_756LocaleD2Ev
@_ZN6icu_756LocaleC1EPKcS2_S2_S2_ = unnamed_addr alias void (ptr, ptr, ptr, ptr, ptr), ptr @_ZN6icu_756LocaleC2EPKcS2_S2_S2_
@_ZN6icu_756LocaleC1ERKS0_ = unnamed_addr alias void (ptr, ptr), ptr @_ZN6icu_756LocaleC2ERKS0_

; Function Attrs: mustprogress nounwind uwtable
define linkonce_odr void @_ZN6icu_755MutexD2Ev(ptr noundef nonnull align 8 dereferenceable(8) %this) unnamed_addr #0 comdat align 2 personality ptr @__gxx_personality_v0 {
entry:
  %this.addr = alloca ptr, align 8
  store ptr %this, ptr %this.addr, align 8
  %this1 = load ptr, ptr %this.addr, align 8
  %fMutex = getelementptr inbounds %"class.icu_75::Mutex", ptr %this1, i32 0, i32 0
  %0 = load ptr, ptr %fMutex, align 8
  invoke void @umtx_unlock_75(ptr noundef %0)
          to label %invoke.cont unwind label %terminate.lpad

invoke.cont:                                      ; preds = %entry
  ret void

terminate.lpad:                                   ; preds = %entry
  %1 = landingpad { ptr, i32 }
          catch ptr null
  %2 = extractvalue { ptr, i32 } %1, 0
  call void @__clang_call_terminate(ptr %2) #12
  unreachable
}

; Function Attrs: mustprogress uwtable
define linkonce_odr void @_ZN6icu_755MutexC2EPNS_6UMutexE(ptr noundef nonnull align 8 dereferenceable(8) %this, ptr noundef %mutex) unnamed_addr #1 comdat align 2 {
entry:
  %this.addr = alloca ptr, align 8
  %mutex.addr = alloca ptr, align 8
  store ptr %this, ptr %this.addr, align 8
  store ptr %mutex, ptr %mutex.addr, align 8
  %this1 = load ptr, ptr %this.addr, align 8
  %fMutex = getelementptr inbounds %"class.icu_75::Mutex", ptr %this1, i32 0, i32 0
  %0 = load ptr, ptr %mutex.addr, align 8
  store ptr %0, ptr %fMutex, align 8
  %fMutex2 = getelementptr inbounds %"class.icu_75::Mutex", ptr %this1, i32 0, i32 0
  %1 = load ptr, ptr %fMutex2, align 8
  call void @umtx_lock_75(ptr noundef %1)
  ret void
}

; Function Attrs: mustprogress uwtable
define noundef nonnull align 8 dereferenceable(217) ptr @_ZN6icu_756Locale10getDefaultEv() #1 align 2 {
entry:
  %retval = alloca ptr, align 8
  %lock = alloca %"class.icu_75::Mutex", align 8
  %cleanup.dest.slot = alloca i32, align 4
  %status = alloca i32, align 4
  call void @_ZN6icu_755MutexC2EPNS_6UMutexE(ptr noundef nonnull align 8 dereferenceable(8) %lock, ptr noundef @_ZN6icu_75L19gDefaultLocaleMutexE)
  %0 = load ptr, ptr @_ZN6icu_75L14gDefaultLocaleE, align 8
  %cmp = icmp ne ptr %0, null
  br i1 %cmp, label %if.then, label %if.end

if.then:                                          ; preds = %entry
  %1 = load ptr, ptr @_ZN6icu_75L14gDefaultLocaleE, align 8
  store ptr %1, ptr %retval, align 8
  store i32 1, ptr %cleanup.dest.slot, align 4
  br label %cleanup

if.end:                                           ; preds = %entry
  store i32 0, ptr %cleanup.dest.slot, align 4
  br label %cleanup

cleanup:                                          ; preds = %if.end, %if.then
  call void @_ZN6icu_755MutexD2Ev(ptr noundef nonnull align 8 dereferenceable(8) %lock) #10
  %cleanup.dest = load i32, ptr %cleanup.dest.slot, align 4
  switch i32 %cleanup.dest, label %unreachable [
    i32 0, label %cleanup.cont
    i32 1, label %return
  ]

cleanup.cont:                                     ; preds = %cleanup
  store i32 0, ptr %status, align 4
  %call = call noundef ptr @_ZN6icu_7527locale_set_default_internalEPKcR10UErrorCode(ptr noundef null, ptr noundef nonnull align 4 dereferenceable(4) %status)
  store ptr %call, ptr %retval, align 8
  br label %return

return:                                           ; preds = %cleanup.cont, %cleanup
  %2 = load ptr, ptr %retval, align 8
  ret ptr %2

unreachable:                                      ; preds = %cleanup
  unreachable
}

; Function Attrs: mustprogress uwtable
define void @_ZN6icu_756Locale14createFromNameEPKc(ptr noalias sret(%"class.icu_75::Locale") align 8 %agg.result, ptr noundef %name) #1 align 2 personality ptr @__gxx_personality_v0 {
entry:
  %result.ptr = alloca ptr, align 8
  %name.addr = alloca ptr, align 8
  %nrvo = alloca i1, align 1
  %exn.slot = alloca ptr, align 8
  %ehselector.slot = alloca i32, align 4
  store ptr %agg.result, ptr %result.ptr, align 8
  store ptr %name, ptr %name.addr, align 8
  %0 = load ptr, ptr %name.addr, align 8
  %tobool = icmp ne ptr %0, null
  br i1 %tobool, label %if.then, label %if.else

if.then:                                          ; preds = %entry
  store i1 false, ptr %nrvo, align 1
  call void @_ZN6icu_756LocaleC1EPKcS2_S2_S2_(ptr noundef nonnull align 8 dereferenceable(217) %agg.result, ptr noundef @.str, ptr noundef null, ptr noundef null, ptr noundef null)
  %1 = load ptr, ptr %name.addr, align 8
  %call = invoke noundef nonnull align 8 dereferenceable(217) ptr @_ZN6icu_756Locale4initEPKca(ptr noundef nonnull align 8 dereferenceable(217) %agg.result, ptr noundef %1, i8 noundef signext 0)
          to label %invoke.cont unwind label %lpad

invoke.cont:                                      ; preds = %if.then
  store i1 true, ptr %nrvo, align 1
  %nrvo.val = load i1, ptr %nrvo, align 1
  br i1 %nrvo.val, label %nrvo.skipdtor, label %nrvo.unused

lpad:                                             ; preds = %if.then
  %2 = landingpad { ptr, i32 }
          cleanup
  %3 = extractvalue { ptr, i32 } %2, 0
  store ptr %3, ptr %exn.slot, align 8
  %4 = extractvalue { ptr, i32 } %2, 1
  store i32 %4, ptr %ehselector.slot, align 4
  call void @_ZN6icu_756LocaleD1Ev(ptr noundef nonnull align 8 dereferenceable(217) %agg.result) #10
  br label %eh.resume

nrvo.unused:                                      ; preds = %invoke.cont
  call void @_ZN6icu_756LocaleD1Ev(ptr noundef nonnull align 8 dereferenceable(217) %agg.result) #10
  br label %nrvo.skipdtor

nrvo.skipdtor:                                    ; preds = %nrvo.unused, %invoke.cont
  br label %return

if.else:                                          ; preds = %entry
  %call1 = call noundef nonnull align 8 dereferenceable(217) ptr @_ZN6icu_756Locale10getDefaultEv()
  call void @_ZN6icu_756LocaleC1ERKS0_(ptr noundef nonnull align 8 dereferenceable(217) %agg.result, ptr noundef nonnull align 8 dereferenceable(217) %call1)
  br label %return

return:                                           ; preds = %if.else, %nrvo.skipdtor
  ret void

eh.resume:                                        ; preds = %lpad
  %exn = load ptr, ptr %exn.slot, align 8
  %sel = load i32, ptr %ehselector.slot, align 4
  %lpad.val = insertvalue { ptr, i32 } poison, ptr %exn, 0
  %lpad.val2 = insertvalue { ptr, i32 } %lpad.val, i32 %sel, 1
  resume { ptr, i32 } %lpad.val2
}