; Function Attrs: mustprogress uwtable
define void @_ZN6icu_756Locale14createFromNameEPKc(ptr noalias sret(%"class.icu_75::Locale") align 8 %agg.result, ptr noundef %name) local_unnamed_addr #1 align 2 personality ptr @__gxx_personality_v0 {
entry:
  %status.i = alloca i32, align 4
  %tobool.not = icmp eq ptr %name, null
  br i1 %tobool.not, label %if.else, label %if.then

if.then:                                          ; preds = %entry
  tail call void @_ZN6icu_756LocaleC1EPKcS2_S2_S2_(ptr noundef nonnull align 8 dereferenceable(217) %agg.result, ptr noundef nonnull @.str, ptr noundef null, ptr noundef null, ptr noundef null)
  %call = invoke noundef nonnull align 8 dereferenceable(217) ptr @_ZN6icu_756Locale4initEPKca(ptr noundef nonnull align 8 dereferenceable(217) %agg.result, ptr noundef nonnull %name, i8 noundef signext 0)
          to label %return unwind label %lpad

lpad:                                             ; preds = %if.then
  %0 = landingpad { ptr, i32 }
          cleanup
  tail call void @_ZN6icu_756LocaleD1Ev(ptr noundef nonnull align 8 dereferenceable(217) %agg.result) #20
  resume { ptr, i32 } %0

if.else:                                          ; preds = %entry
  call void @llvm.lifetime.start.p0(i64 4, ptr nonnull %status.i)
  tail call void @umtx_lock_75(ptr noundef nonnull @_ZN6icu_75L19gDefaultLocaleMutexE)
  %1 = load ptr, ptr @_ZN6icu_75L14gDefaultLocaleE, align 8
  invoke void @umtx_unlock_75(ptr noundef nonnull @_ZN6icu_75L19gDefaultLocaleMutexE)
          to label %_ZN6icu_755MutexD2Ev.exit.i unwind label %terminate.lpad.i.i

terminate.lpad.i.i:                               ; preds = %if.else
  %2 = landingpad { ptr, i32 }
          catch ptr null
  %3 = extractvalue { ptr, i32 } %2, 0
  tail call void @__clang_call_terminate(ptr %3) #22
  unreachable

_ZN6icu_755MutexD2Ev.exit.i:                      ; preds = %if.else
  %cmp.not.not.i = icmp eq ptr %1, null
  br i1 %cmp.not.not.i, label %cleanup.cont.i, label %_ZN6icu_756Locale10getDefaultEv.exit

cleanup.cont.i:                                   ; preds = %_ZN6icu_755MutexD2Ev.exit.i
  store i32 0, ptr %status.i, align 4
  %call.i = call noundef ptr @_ZN6icu_7527locale_set_default_internalEPKcR10UErrorCode(ptr noundef null, ptr noundef nonnull align 4 dereferenceable(4) %status.i)
  br label %_ZN6icu_756Locale10getDefaultEv.exit

_ZN6icu_756Locale10getDefaultEv.exit:             ; preds = %_ZN6icu_755MutexD2Ev.exit.i, %cleanup.cont.i
  %retval.1.i = phi ptr [ %1, %_ZN6icu_755MutexD2Ev.exit.i ], [ %call.i, %cleanup.cont.i ]
  call void @llvm.lifetime.end.p0(i64 4, ptr nonnull %status.i)
  call void @_ZN6icu_756LocaleC1ERKS0_(ptr noundef nonnull align 8 dereferenceable(217) %agg.result, ptr noundef nonnull align 8 dereferenceable(217) %retval.1.i)
  br label %return

return:                                           ; preds = %if.then, %_ZN6icu_756Locale10getDefaultEv.exit
  ret void
}